; Function Attrs: nounwind uwtable
define noundef ptr @Abc_NtkDarFold2(ptr noundef %0, i32 noundef %1, i32 noundef %2, i32 noundef %3) local_unnamed_addr #1 {
  %5 = tail call ptr @Abc_NtkToDar(ptr noundef %0, i32 noundef 0, i32 noundef 1)
  %6 = icmp eq ptr %5, null
  br i1 %6, label %17, label %7

7:                                                ; preds = %4
  %8 = tail call ptr @Saig_ManDupFoldConstrsFunc2(ptr noundef nonnull %5, i32 noundef %1, i32 noundef %2, i32 noundef %3) #19
  tail call void @Aig_ManStop(ptr noundef nonnull %5) #19
  %9 = tail call ptr @Abc_NtkFromAigPhase(ptr noundef %8)
  %10 = load ptr, ptr %8, align 8
  %11 = tail call ptr @Extra_UtilStrsav(ptr noundef %10) #19
  %12 = getelementptr inbounds nuw i8, ptr %9, i64 8
  store ptr %11, ptr %12, align 8
  %13 = getelementptr inbounds nuw i8, ptr %8, i64 8
  %14 = load ptr, ptr %13, align 8
  %15 = tail call ptr @Extra_UtilStrsav(ptr noundef %14) #19
  %16 = getelementptr inbounds nuw i8, ptr %9, i64 16
  store ptr %15, ptr %16, align 8
  tail call void @Aig_ManStop(ptr noundef nonnull %8) #19
  br label %17

17:                                               ; preds = %4, %7
  %.0 = phi ptr [ %9, %7 ], [ null, %4 ]
  ret ptr %.0
}